target datalayout = "e-m:e-p270:32:32-p271:32:32-p272:64:64-i64:64-i128:128-f80:128-n8:16:32:64-S128"
target triple = "x86_64-pc-linux-gnu"

%"struct.cv::HWFeatures" = type { [513 x i8] }
%"struct.cv::CoreTLSData" = type { %"class.cv::RNG", %"class.cv::ocl::OpenCLExecutionContext", i8, i32, i32, i32 }
%"class.cv::RNG" = type { i64 }
%"class.cv::ocl::OpenCLExecutionContext" = type { %"class.std::shared_ptr" }
%"class.std::shared_ptr" = type { %"class.std::__shared_ptr" }
%"class.std::__shared_ptr" = type { ptr, %"class.std::__shared_count" }
%"class.std::__shared_count" = type { ptr }

@_ZN2cvL15featuresEnabledE = internal global %"struct.cv::HWFeatures" zeroinitializer, align 1
@_ZN2cvL16featuresDisabledE = internal global %"struct.cv::HWFeatures" zeroinitializer, align 1
@_ZN2cvL15currentFeaturesE = internal global ptr @_ZN2cvL15featuresEnabledE, align 8
@_ZN2cv16useOptimizedFlagE = hidden global i8 1, align 1

; Function Attrs: mustprogress uwtable
define void @_ZN2cv3ipp9setUseIPPEb(i1 noundef zeroext %0) #4 {
  %2 = alloca i8, align 1
  %3 = alloca ptr, align 8
  %4 = zext i1 %0 to i8
  store i8 %4, ptr %2, align 1, !tbaa !8
  call void @llvm.lifetime.start.p0(i64 8, ptr %3) #3
  %5 = call noundef nonnull align 8 dereferenceable(40) ptr @_ZN2cv14getCoreTlsDataEv()
  store ptr %5, ptr %3, align 8, !tbaa !49
  %6 = load ptr, ptr %3, align 8, !tbaa !49
  %7 = getelementptr inbounds nuw %"struct.cv::CoreTLSData", ptr %6, i32 0, i32 4
  store i32 0, ptr %7, align 8, !tbaa !51
  call void @llvm.lifetime.end.p0(i64 8, ptr %3) #3
  ret void
}

; Function Attrs: mustprogress uwtable
define void @_ZN2cv15setUseOptimizedEb(i1 noundef zeroext %0) #4 {
  %2 = alloca i8, align 1
  %3 = zext i1 %0 to i8
  store i8 %3, ptr %2, align 1, !tbaa !8
  %4 = load i8, ptr %2, align 1, !tbaa !8, !range !30, !noundef !31
  %5 = trunc i8 %4 to i1
  %6 = zext i1 %5 to i8
  store volatile i8 %6, ptr @_ZN2cv16useOptimizedFlagE, align 1, !tbaa !8
  %7 = load i8, ptr %2, align 1, !tbaa !8, !range !30, !noundef !31
  %8 = trunc i8 %7 to i1
  %9 = select i1 %8, ptr @_ZN2cvL15featuresEnabledE, ptr @_ZN2cvL16featuresDisabledE
  store ptr %9, ptr @_ZN2cvL15currentFeaturesE, align 8, !tbaa !42
  %10 = load i8, ptr %2, align 1, !tbaa !8, !range !30, !noundef !31
  %11 = trunc i8 %10 to i1
  call void @_ZN2cv3ipp9setUseIPPEb(i1 noundef zeroext %11)
  ret void
}