; Function Attrs: mustprogress uwtable
define void @_ZN2cv15setUseOptimizedEb(i1 noundef zeroext %0) local_unnamed_addr #3 {
  %2 = zext i1 %0 to i8
  store volatile i8 %2, ptr @_ZN2cv16useOptimizedFlagE, align 1, !tbaa !14
  %3 = select i1 %0, ptr @_ZN2cvL15featuresEnabledE, ptr @_ZN2cvL16featuresDisabledE
  store ptr %3, ptr @_ZN2cvL15currentFeaturesE, align 8, !tbaa !78
  %4 = tail call noundef nonnull align 8 dereferenceable(40) ptr @_ZN2cv14getCoreTlsDataEv()
  %5 = getelementptr inbounds nuw i8, ptr %4, i64 32
  store i32 0, ptr %5, align 8, !tbaa !85
  ret void
}